target datalayout = "e-m:e-p270:32:32-p271:32:32-p272:64:64-i64:64-i128:128-f80:128-n8:16:32:64-S128"
target triple = "x86_64-pc-linux-gnu"

%class.LogMessageBuffer = type { ptr, i64, i64, ptr, i64, i64, ptr, i8, i32, ptr }
%"class.LogMessageBuffer::Iterator" = type { ptr, i64, i32, ptr }
%"struct.LogMessageBuffer::LogLine" = type { i32, i64 }

; Function Attrs: mustprogress nounwind uwtable
define hidden void @_ZN16LogMessageBuffer8Iterator30skip_messages_with_finer_levelEv(ptr noundef nonnull align 8 dereferenceable(32) %0) #1 align 2 {
  %2 = alloca ptr, align 8
  store ptr %0, ptr %2, align 8
  %3 = load ptr, ptr %2, align 8
  br label %4

4:                                                ; preds = %27, %1
  %5 = getelementptr inbounds %"class.LogMessageBuffer::Iterator", ptr %3, i32 0, i32 1
  %6 = load i64, ptr %5, align 8
  %7 = getelementptr inbounds %"class.LogMessageBuffer::Iterator", ptr %3, i32 0, i32 0
  %8 = load ptr, ptr %7, align 8
  %9 = getelementptr inbounds %class.LogMessageBuffer, ptr %8, i32 0, i32 4
  %10 = load i64, ptr %9, align 8
  %11 = icmp ult i64 %6, %10
  br i1 %11, label %12, label %31

12:                                               ; preds = %4
  %13 = getelementptr inbounds %"class.LogMessageBuffer::Iterator", ptr %3, i32 0, i32 0
  %14 = load ptr, ptr %13, align 8
  %15 = getelementptr inbounds %class.LogMessageBuffer, ptr %14, i32 0, i32 6
  %16 = load ptr, ptr %15, align 8
  %17 = getelementptr inbounds %"class.LogMessageBuffer::Iterator", ptr %3, i32 0, i32 1
  %18 = load i64, ptr %17, align 8
  %19 = getelementptr inbounds %"struct.LogMessageBuffer::LogLine", ptr %16, i64 %18
  %20 = getelementptr inbounds %"struct.LogMessageBuffer::LogLine", ptr %19, i32 0, i32 0
  %21 = load i32, ptr %20, align 8
  %22 = getelementptr inbounds %"class.LogMessageBuffer::Iterator", ptr %3, i32 0, i32 2
  %23 = load i32, ptr %22, align 8
  %24 = icmp sge i32 %21, %23
  br i1 %24, label %25, label %26

25:                                               ; preds = %12
  br label %31

26:                                               ; preds = %12
  br label %27

27:                                               ; preds = %26
  %28 = getelementptr inbounds %"class.LogMessageBuffer::Iterator", ptr %3, i32 0, i32 1
  %29 = load i64, ptr %28, align 8
  %30 = add i64 %29, 1
  store i64 %30, ptr %28, align 8
  br label %4, !llvm.loop !6

31:                                               ; preds = %25, %4
  ret void
}