; Function Attrs: mustprogress nofree norecurse nosync nounwind memory(read, argmem: readwrite, inaccessiblemem: none) uwtable
define hidden void @_ZN16LogMessageBuffer8Iterator30skip_messages_with_finer_levelEv(ptr nocapture noundef nonnull align 8 dereferenceable(32) %0) local_unnamed_addr #3 align 2 {
  %2 = getelementptr inbounds i8, ptr %0, i64 8
  %3 = load ptr, ptr %0, align 8
  %4 = getelementptr inbounds i8, ptr %3, i64 32
  %5 = load i64, ptr %2, align 8
  %6 = load i64, ptr %4, align 8
  %7 = icmp ult i64 %5, %6
  br i1 %7, label %.lr.ph, label %._crit_edge

.lr.ph:                                           ; preds = %1
  %8 = getelementptr inbounds i8, ptr %3, i64 48
  %9 = getelementptr inbounds i8, ptr %0, i64 16
  %10 = load i32, ptr %9, align 8
  br label %11

11:                                               ; preds = %.lr.ph, %16
  %12 = phi i64 [ %5, %.lr.ph ], [ %17, %16 ]
  %13 = load ptr, ptr %8, align 8
  %14 = getelementptr inbounds %"struct.LogMessageBuffer::LogLine", ptr %13, i64 %12
  %15 = load i32, ptr %14, align 8
  %.not = icmp slt i32 %15, %10
  br i1 %.not, label %16, label %._crit_edge

16:                                               ; preds = %11
  %17 = add nuw i64 %12, 1
  store i64 %17, ptr %2, align 8
  %18 = load i64, ptr %4, align 8
  %19 = icmp ult i64 %17, %18
  br i1 %19, label %11, label %._crit_edge, !llvm.loop !6

._crit_edge:                                      ; preds = %16, %11, %1
  ret void
}